target datalayout = "e-m:e-p270:32:32-p271:32:32-p272:64:64-i64:64-i128:128-f80:128-n8:16:32:64-S128"
target triple = "x86_64-pc-linux-gnu"

%"struct.cv::SparseMat::Hdr" = type { i32, i32, i32, i64, i64, i64, %"class.std::vector", %"class.std::vector.0", [32 x i32] }
%"class.std::vector" = type { %"struct.std::_Vector_base" }
%"struct.std::_Vector_base" = type { %"struct.std::_Vector_base<unsigned char, std::allocator<unsigned char>>::_Vector_impl" }
%"struct.std::_Vector_base<unsigned char, std::allocator<unsigned char>>::_Vector_impl" = type { %"struct.std::_Vector_base<unsigned char, std::allocator<unsigned char>>::_Vector_impl_data" }
%"struct.std::_Vector_base<unsigned char, std::allocator<unsigned char>>::_Vector_impl_data" = type { ptr, ptr, ptr }
%"class.std::vector.0" = type { %"struct.std::_Vector_base.1" }
%"struct.std::_Vector_base.1" = type { %"struct.std::_Vector_base<unsigned long, std::allocator<unsigned long>>::_Vector_impl" }
%"struct.std::_Vector_base<unsigned long, std::allocator<unsigned long>>::_Vector_impl" = type { %"struct.std::_Vector_base<unsigned long, std::allocator<unsigned long>>::_Vector_impl_data" }
%"struct.std::_Vector_base<unsigned long, std::allocator<unsigned long>>::_Vector_impl_data" = type { ptr, ptr, ptr }
%"class.cv::SparseMat" = type { i32, ptr }
%"class.cv::SparseMatConstIterator" = type { ptr, i64, ptr }
%"struct.cv::SparseMat::Node" = type { i64, i64, [32 x i32] }

; Function Attrs: inlinehint mustprogress nounwind uwtable
define internal void @_ZN2cvL8copyElemEPKhPhm(ptr noundef %0, ptr noundef %1, i64 noundef %2) #2 {
  %4 = alloca ptr, align 8
  %5 = alloca ptr, align 8
  %6 = alloca i64, align 8
  %7 = alloca i64, align 8
  store ptr %0, ptr %4, align 8, !tbaa !61
  store ptr %1, ptr %5, align 8, !tbaa !61
  store i64 %2, ptr %6, align 8, !tbaa !35
  call void @llvm.lifetime.start.p0(i64 8, ptr %7) #18
  store i64 0, ptr %7, align 8, !tbaa !35
  br label %8

8:                                                ; preds = %21, %3
  %9 = load i64, ptr %7, align 8, !tbaa !35
  %10 = add i64 %9, 4
  %11 = load i64, ptr %6, align 8, !tbaa !35
  %12 = icmp ule i64 %10, %11
  br i1 %12, label %13, label %24

13:                                               ; preds = %8
  %14 = load ptr, ptr %4, align 8, !tbaa !61
  %15 = load i64, ptr %7, align 8, !tbaa !35
  %16 = getelementptr inbounds nuw i8, ptr %14, i64 %15
  %17 = load i32, ptr %16, align 4, !tbaa !8
  %18 = load ptr, ptr %5, align 8, !tbaa !61
  %19 = load i64, ptr %7, align 8, !tbaa !35
  %20 = getelementptr inbounds nuw i8, ptr %18, i64 %19
  store i32 %17, ptr %20, align 4, !tbaa !8
  br label %21

21:                                               ; preds = %13
  %22 = load i64, ptr %7, align 8, !tbaa !35
  %23 = add i64 %22, 4
  store i64 %23, ptr %7, align 8, !tbaa !35
  br label %8, !llvm.loop !88

24:                                               ; preds = %8
  br label %25

25:                                               ; preds = %37, %24
  %26 = load i64, ptr %7, align 8, !tbaa !35
  %27 = load i64, ptr %6, align 8, !tbaa !35
  %28 = icmp ult i64 %26, %27
  br i1 %28, label %29, label %40

29:                                               ; preds = %25
  %30 = load ptr, ptr %4, align 8, !tbaa !61
  %31 = load i64, ptr %7, align 8, !tbaa !35
  %32 = getelementptr inbounds nuw i8, ptr %30, i64 %31
  %33 = load i8, ptr %32, align 1, !tbaa !81
  %34 = load ptr, ptr %5, align 8, !tbaa !61
  %35 = load i64, ptr %7, align 8, !tbaa !35
  %36 = getelementptr inbounds nuw i8, ptr %34, i64 %35
  store i8 %33, ptr %36, align 1, !tbaa !81
  br label %37

37:                                               ; preds = %29
  %38 = load i64, ptr %7, align 8, !tbaa !35
  %39 = add i64 %38, 1
  store i64 %39, ptr %7, align 8, !tbaa !35
  br label %25, !llvm.loop !89

40:                                               ; preds = %25
  call void @llvm.lifetime.end.p0(i64 8, ptr %7) #18
  ret void
}

; Function Attrs: inlinehint mustprogress nounwind uwtable
define linkonce_odr hidden noundef ptr @_ZNK2cv22SparseMatConstIterator4nodeEv(ptr noundef nonnull align 8 dereferenceable(24) %0) #2 comdat align 2 {
  %2 = alloca ptr, align 8
  store ptr %0, ptr %2, align 8, !tbaa !98
  %3 = load ptr, ptr %2, align 8
  %4 = getelementptr inbounds nuw %"class.cv::SparseMatConstIterator", ptr %3, i32 0, i32 2
  %5 = load ptr, ptr %4, align 8, !tbaa !57
  %6 = icmp ne ptr %5, null
  br i1 %6, label %7, label %29

7:                                                ; preds = %1
  %8 = getelementptr inbounds nuw %"class.cv::SparseMatConstIterator", ptr %3, i32 0, i32 0
  %9 = load ptr, ptr %8, align 8, !tbaa !100
  %10 = icmp ne ptr %9, null
  br i1 %10, label %11, label %29

11:                                               ; preds = %7
  %12 = getelementptr inbounds nuw %"class.cv::SparseMatConstIterator", ptr %3, i32 0, i32 0
  %13 = load ptr, ptr %12, align 8, !tbaa !100
  %14 = getelementptr inbounds nuw %"class.cv::SparseMat", ptr %13, i32 0, i32 1
  %15 = load ptr, ptr %14, align 8, !tbaa !46
  %16 = icmp ne ptr %15, null
  br i1 %16, label %17, label %29

17:                                               ; preds = %11
  %18 = getelementptr inbounds nuw %"class.cv::SparseMatConstIterator", ptr %3, i32 0, i32 2
  %19 = load ptr, ptr %18, align 8, !tbaa !57
  %20 = getelementptr inbounds nuw %"class.cv::SparseMatConstIterator", ptr %3, i32 0, i32 0
  %21 = load ptr, ptr %20, align 8, !tbaa !100
  %22 = getelementptr inbounds nuw %"class.cv::SparseMat", ptr %21, i32 0, i32 1
  %23 = load ptr, ptr %22, align 8, !tbaa !46
  %24 = getelementptr inbounds nuw %"struct.cv::SparseMat::Hdr", ptr %23, i32 0, i32 2
  %25 = load i32, ptr %24, align 8, !tbaa !26
  %26 = sext i32 %25 to i64
  %27 = sub i64 0, %26
  %28 = getelementptr inbounds i8, ptr %19, i64 %27
  br label %30

29:                                               ; preds = %11, %7, %1
  br label %30

30:                                               ; preds = %29, %17
  %31 = phi ptr [ %28, %17 ], [ null, %29 ]
  ret ptr %31
}

; Function Attrs: inlinehint mustprogress nounwind uwtable
define linkonce_odr hidden noundef i64 @_ZNK2cv9SparseMat8elemSizeEv(ptr noundef nonnull align 8 dereferenceable(16) %0) #2 comdat align 2 {
  %2 = alloca ptr, align 8
  store ptr %0, ptr %2, align 8, !tbaa !42
  %3 = load ptr, ptr %2, align 8
  %4 = getelementptr inbounds nuw %"class.cv::SparseMat", ptr %3, i32 0, i32 0
  %5 = load i32, ptr %4, align 8, !tbaa !44
  %6 = and i32 %5, 4088
  %7 = ashr i32 %6, 3
  %8 = add nsw i32 %7, 1
  %9 = getelementptr inbounds nuw %"class.cv::SparseMat", ptr %3, i32 0, i32 0
  %10 = load i32, ptr %9, align 8, !tbaa !44
  %11 = and i32 %10, 7
  %12 = mul nsw i32 %11, 4
  %13 = ashr i32 675553809, %12
  %14 = and i32 %13, 15
  %15 = mul nsw i32 %8, %14
  %16 = sext i32 %15 to i64
  ret i64 %16
}

; Function Attrs: inlinehint mustprogress nounwind uwtable
define linkonce_odr hidden noundef i64 @_ZNK2cv9SparseMat7nzcountEv(ptr noundef nonnull align 8 dereferenceable(16) %0) #2 comdat align 2 {
  %2 = alloca ptr, align 8
  store ptr %0, ptr %2, align 8, !tbaa !42
  %3 = load ptr, ptr %2, align 8
  %4 = getelementptr inbounds nuw %"class.cv::SparseMat", ptr %3, i32 0, i32 1
  %5 = load ptr, ptr %4, align 8, !tbaa !46
  %6 = icmp ne ptr %5, null
  br i1 %6, label %7, label %12

7:                                                ; preds = %1
  %8 = getelementptr inbounds nuw %"class.cv::SparseMat", ptr %3, i32 0, i32 1
  %9 = load ptr, ptr %8, align 8, !tbaa !46
  %10 = getelementptr inbounds nuw %"struct.cv::SparseMat::Hdr", ptr %9, i32 0, i32 4
  %11 = load i64, ptr %10, align 8, !tbaa !37
  br label %13

12:                                               ; preds = %1
  br label %13

13:                                               ; preds = %12, %7
  %14 = phi i64 [ %11, %7 ], [ 0, %12 ]
  ret i64 %14
}

; Function Attrs: inlinehint mustprogress uwtable
define linkonce_odr hidden void @_ZNK2cv9SparseMat5beginEv(ptr dead_on_unwind noalias writable sret(%"class.cv::SparseMatConstIterator") align 8 %0, ptr noundef nonnull align 8 dereferenceable(16) %1) #9 comdat align 2 {
  %3 = alloca ptr, align 8
  %4 = alloca ptr, align 8
  store ptr %0, ptr %3, align 8
  store ptr %1, ptr %4, align 8, !tbaa !42
  %5 = load ptr, ptr %4, align 8
  call void @_ZN2cv22SparseMatConstIteratorC1EPKNS_9SparseMatE(ptr noundef nonnull align 8 dereferenceable(24) %0, ptr noundef %5)
  ret void
}

; Function Attrs: inlinehint mustprogress nounwind uwtable
define linkonce_odr hidden noundef i32 @_ZNK2cv9SparseMat4typeEv(ptr noundef nonnull align 8 dereferenceable(16) %0) #2 comdat align 2 {
  %2 = alloca ptr, align 8
  store ptr %0, ptr %2, align 8, !tbaa !42
  %3 = load ptr, ptr %2, align 8
  %4 = getelementptr inbounds nuw %"class.cv::SparseMat", ptr %3, i32 0, i32 0
  %5 = load i32, ptr %4, align 8, !tbaa !44
  %6 = and i32 %5, 4095
  ret i32 %6
}

; Function Attrs: mustprogress uwtable
define noundef ptr @_Z17cvCreateSparseMatRKN2cv9SparseMatE(ptr noundef nonnull align 8 dereferenceable(16) %0) #0 {
  %2 = alloca ptr, align 8
  %3 = alloca ptr, align 8
  %4 = alloca ptr, align 8
  %5 = alloca %"class.cv::SparseMatConstIterator", align 8
  %6 = alloca i64, align 8
  %7 = alloca i64, align 8
  %8 = alloca i64, align 8
  %9 = alloca ptr, align 8
  %10 = alloca ptr, align 8
  store ptr %0, ptr %3, align 8, !tbaa !42
  %11 = load ptr, ptr %3, align 8, !tbaa !42
  %12 = getelementptr inbounds nuw %"class.cv::SparseMat", ptr %11, i32 0, i32 1
  %13 = load ptr, ptr %12, align 8, !tbaa !46
  %14 = icmp ne ptr %13, null
  br i1 %14, label %15, label %22

15:                                               ; preds = %1
  %16 = load ptr, ptr %3, align 8, !tbaa !42
  %17 = getelementptr inbounds nuw %"class.cv::SparseMat", ptr %16, i32 0, i32 1
  %18 = load ptr, ptr %17, align 8, !tbaa !46
  %19 = getelementptr inbounds nuw %"struct.cv::SparseMat::Hdr", ptr %18, i32 0, i32 1
  %20 = load i32, ptr %19, align 4, !tbaa !25
  %21 = icmp sgt i32 %20, 32
  br i1 %21, label %22, label %23

22:                                               ; preds = %15, %1
  store ptr null, ptr %2, align 8
  br label %63

23:                                               ; preds = %15
  call void @llvm.lifetime.start.p0(i64 8, ptr %4) #18
  %24 = load ptr, ptr %3, align 8, !tbaa !42
  %25 = getelementptr inbounds nuw %"class.cv::SparseMat", ptr %24, i32 0, i32 1
  %26 = load ptr, ptr %25, align 8, !tbaa !46
  %27 = getelementptr inbounds nuw %"struct.cv::SparseMat::Hdr", ptr %26, i32 0, i32 1
  %28 = load i32, ptr %27, align 4, !tbaa !25
  %29 = load ptr, ptr %3, align 8, !tbaa !42
  %30 = getelementptr inbounds nuw %"class.cv::SparseMat", ptr %29, i32 0, i32 1
  %31 = load ptr, ptr %30, align 8, !tbaa !46
  %32 = getelementptr inbounds nuw %"struct.cv::SparseMat::Hdr", ptr %31, i32 0, i32 8
  %33 = getelementptr inbounds [32 x i32], ptr %32, i64 0, i64 0
  %34 = load ptr, ptr %3, align 8, !tbaa !42
  %35 = call noundef i32 @_ZNK2cv9SparseMat4typeEv(ptr noundef nonnull align 8 dereferenceable(16) %34)
  %36 = call ptr @cvCreateSparseMat(i32 noundef %28, ptr noundef %33, i32 noundef %35)
  store ptr %36, ptr %4, align 8, !tbaa !144
  call void @llvm.lifetime.start.p0(i64 24, ptr %5) #18
  %37 = load ptr, ptr %3, align 8, !tbaa !42
  call void @_ZNK2cv9SparseMat5beginEv(ptr dead_on_unwind writable sret(%"class.cv::SparseMatConstIterator") align 8 %5, ptr noundef nonnull align 8 dereferenceable(16) %37)
  call void @llvm.lifetime.start.p0(i64 8, ptr %6) #18
  call void @llvm.lifetime.start.p0(i64 8, ptr %7) #18
  %38 = load ptr, ptr %3, align 8, !tbaa !42
  %39 = call noundef i64 @_ZNK2cv9SparseMat7nzcountEv(ptr noundef nonnull align 8 dereferenceable(16) %38)
  store i64 %39, ptr %7, align 8, !tbaa !35
  call void @llvm.lifetime.start.p0(i64 8, ptr %8) #18
  %40 = load ptr, ptr %3, align 8, !tbaa !42
  %41 = call noundef i64 @_ZNK2cv9SparseMat8elemSizeEv(ptr noundef nonnull align 8 dereferenceable(16) %40)
  store i64 %41, ptr %8, align 8, !tbaa !35
  store i64 0, ptr %6, align 8, !tbaa !35
  br label %42

42:                                               ; preds = %57, %23
  %43 = load i64, ptr %6, align 8, !tbaa !35
  %44 = load i64, ptr %7, align 8, !tbaa !35
  %45 = icmp ult i64 %43, %44
  br i1 %45, label %46, label %61

46:                                               ; preds = %42
  call void @llvm.lifetime.start.p0(i64 8, ptr %9) #18
  %47 = call noundef ptr @_ZNK2cv22SparseMatConstIterator4nodeEv(ptr noundef nonnull align 8 dereferenceable(24) %5)
  store ptr %47, ptr %9, align 8, !tbaa !55
  call void @llvm.lifetime.start.p0(i64 8, ptr %10) #18
  %48 = load ptr, ptr %4, align 8, !tbaa !144
  %49 = load ptr, ptr %9, align 8, !tbaa !55
  %50 = getelementptr inbounds nuw %"struct.cv::SparseMat::Node", ptr %49, i32 0, i32 2
  %51 = getelementptr inbounds [32 x i32], ptr %50, i64 0, i64 0
  %52 = call ptr @cvPtrND(ptr noundef %48, ptr noundef %51, ptr noundef null, i32 noundef -2, ptr noundef null)
  store ptr %52, ptr %10, align 8, !tbaa !61
  %53 = getelementptr inbounds nuw %"class.cv::SparseMatConstIterator", ptr %5, i32 0, i32 2
  %54 = load ptr, ptr %53, align 8, !tbaa !57
  %55 = load ptr, ptr %10, align 8, !tbaa !61
  %56 = load i64, ptr %8, align 8, !tbaa !35
  call void @_ZN2cvL8copyElemEPKhPhm(ptr noundef %54, ptr noundef %55, i64 noundef %56)
  call void @llvm.lifetime.end.p0(i64 8, ptr %10) #18
  call void @llvm.lifetime.end.p0(i64 8, ptr %9) #18
  br label %57

57:                                               ; preds = %46
  %58 = load i64, ptr %6, align 8, !tbaa !35
  %59 = add i64 %58, 1
  store i64 %59, ptr %6, align 8, !tbaa !35
  %60 = call noundef nonnull align 8 dereferenceable(24) ptr @_ZN2cv22SparseMatConstIteratorppEv(ptr noundef nonnull align 8 dereferenceable(24) %5)
  br label %42, !llvm.loop !146

61:                                               ; preds = %42
  %62 = load ptr, ptr %4, align 8, !tbaa !144
  store ptr %62, ptr %2, align 8
  call void @llvm.lifetime.end.p0(i64 8, ptr %8) #18
  call void @llvm.lifetime.end.p0(i64 8, ptr %7) #18
  call void @llvm.lifetime.end.p0(i64 8, ptr %6) #18
  call void @llvm.lifetime.end.p0(i64 24, ptr %5) #18
  call void @llvm.lifetime.end.p0(i64 8, ptr %4) #18
  br label %63

63:                                               ; preds = %61, %22
  %64 = load ptr, ptr %2, align 8
  ret ptr %64
}