; Function Attrs: mustprogress uwtable
define noundef ptr @_Z17cvCreateSparseMatRKN2cv9SparseMatE(ptr noundef nonnull align 8 dereferenceable(16) %0) local_unnamed_addr #0 {
  %2 = alloca %"class.cv::SparseMatConstIterator", align 8
  %3 = getelementptr inbounds nuw i8, ptr %0, i64 8
  %4 = load ptr, ptr %3, align 8, !tbaa !36
  %.not = icmp eq ptr %4, null
  br i1 %.not, label %85, label %5

5:                                                ; preds = %1
  %6 = getelementptr inbounds nuw i8, ptr %4, i64 4
  %7 = load i32, ptr %6, align 4, !tbaa !20
  %8 = icmp sgt i32 %7, 32
  br i1 %8, label %85, label %9

9:                                                ; preds = %5
  %10 = getelementptr inbounds nuw i8, ptr %4, i64 88
  %11 = load i32, ptr %0, align 8, !tbaa !33
  %12 = and i32 %11, 4095
  %13 = tail call ptr @cvCreateSparseMat(i32 noundef %7, ptr noundef nonnull %10, i32 noundef %12)
  call void @llvm.lifetime.start.p0(i64 24, ptr nonnull %2) #26
  call void @_ZN2cv22SparseMatConstIteratorC1EPKNS_9SparseMatE(ptr noundef nonnull align 8 dereferenceable(24) %2, ptr noundef nonnull align 8 dereferenceable(16) %0)
  %14 = load ptr, ptr %3, align 8, !tbaa !36
  %.not.i = icmp eq ptr %14, null
  br i1 %.not.i, label %_ZNK2cv9SparseMat7nzcountEv.exit, label %15

15:                                               ; preds = %9
  %16 = getelementptr inbounds nuw i8, ptr %14, i64 24
  %17 = load i64, ptr %16, align 8, !tbaa !43
  br label %_ZNK2cv9SparseMat7nzcountEv.exit

_ZNK2cv9SparseMat7nzcountEv.exit:                 ; preds = %9, %15
  %18 = phi i64 [ %17, %15 ], [ 0, %9 ]
  %19 = load i32, ptr %0, align 8, !tbaa !33
  %20 = lshr i32 %19, 3
  %21 = and i32 %20, 511
  %22 = add nuw nsw i32 %21, 1
  %23 = shl i32 %19, 2
  %24 = and i32 %23, 28
  %25 = lshr i32 675553809, %24
  %26 = and i32 %25, 15
  %27 = mul nuw nsw i32 %26, %22
  %.fr23 = freeze i32 %27
  %28 = zext nneg i32 %.fr23 to i64
  %.not22 = icmp eq i64 %18, 0
  br i1 %.not22, label %._crit_edge, label %_ZNK2cv22SparseMatConstIterator4nodeEv.exit.lr.ph

_ZNK2cv22SparseMatConstIterator4nodeEv.exit.lr.ph: ; preds = %_ZNK2cv9SparseMat7nzcountEv.exit
  %29 = getelementptr inbounds nuw i8, ptr %2, i64 16
  %.not14.i = icmp ult i32 %.fr23, 4
  br i1 %.not14.i, label %_ZNK2cv22SparseMatConstIterator4nodeEv.exit.lr.ph.split.us, label %_ZNK2cv22SparseMatConstIterator4nodeEv.exit

_ZNK2cv22SparseMatConstIterator4nodeEv.exit.lr.ph.split.us: ; preds = %_ZNK2cv22SparseMatConstIterator4nodeEv.exit.lr.ph
  %.not24 = icmp eq i32 %.fr23, 0
  br i1 %.not24, label %_ZNK2cv22SparseMatConstIterator4nodeEv.exit.us, label %_ZNK2cv22SparseMatConstIterator4nodeEv.exit.us.us

_ZNK2cv22SparseMatConstIterator4nodeEv.exit.us.us: ; preds = %_ZNK2cv22SparseMatConstIterator4nodeEv.exit.lr.ph.split.us, %_ZN2cvL8copyElemEPKhPhm.exit.loopexit.us.us
  %.01621.us.us = phi i64 [ %46, %_ZN2cvL8copyElemEPKhPhm.exit.loopexit.us.us ], [ 0, %_ZNK2cv22SparseMatConstIterator4nodeEv.exit.lr.ph.split.us ]
  %30 = load ptr, ptr %29, align 8, !tbaa !45, !nonnull !82, !noundef !82
  %31 = load ptr, ptr %2, align 8, !tbaa !48, !nonnull !82, !noundef !82
  %32 = getelementptr inbounds nuw i8, ptr %31, i64 8
  %33 = load ptr, ptr %32, align 8, !tbaa !36, !nonnull !82, !noundef !82
  %34 = getelementptr inbounds nuw i8, ptr %33, i64 8
  %35 = load i32, ptr %34, align 8, !tbaa !21
  %36 = sext i32 %35 to i64
  %37 = sub nsw i64 0, %36
  %38 = getelementptr inbounds i8, ptr %30, i64 %37
  %39 = getelementptr inbounds nuw i8, ptr %38, i64 16
  %40 = call ptr @cvPtrND(ptr noundef %13, ptr noundef nonnull %39, ptr noundef null, i32 noundef -2, ptr noundef null)
  %41 = load ptr, ptr %29, align 8, !tbaa !45
  br label %.lr.ph17.i.us.us

.lr.ph17.i.us.us:                                 ; preds = %_ZNK2cv22SparseMatConstIterator4nodeEv.exit.us.us, %.lr.ph17.i.us.us
  %.116.i.us.us = phi i64 [ %45, %.lr.ph17.i.us.us ], [ 0, %_ZNK2cv22SparseMatConstIterator4nodeEv.exit.us.us ]
  %42 = getelementptr inbounds nuw i8, ptr %41, i64 %.116.i.us.us
  %43 = load i8, ptr %42, align 1, !tbaa !32
  %44 = getelementptr inbounds nuw i8, ptr %40, i64 %.116.i.us.us
  store i8 %43, ptr %44, align 1, !tbaa !32
  %45 = add nuw nsw i64 %.116.i.us.us, 1
  %exitcond.not.i.us.us = icmp eq i64 %45, %28
  br i1 %exitcond.not.i.us.us, label %_ZN2cvL8copyElemEPKhPhm.exit.loopexit.us.us, label %.lr.ph17.i.us.us, !llvm.loop !70

_ZN2cvL8copyElemEPKhPhm.exit.loopexit.us.us:      ; preds = %.lr.ph17.i.us.us
  %46 = add nuw i64 %.01621.us.us, 1
  %47 = call noundef nonnull align 8 dereferenceable(24) ptr @_ZN2cv22SparseMatConstIteratorppEv(ptr noundef nonnull align 8 dereferenceable(24) %2)
  %exitcond28.not = icmp eq i64 %46, %18
  br i1 %exitcond28.not, label %._crit_edge, label %_ZNK2cv22SparseMatConstIterator4nodeEv.exit.us.us, !llvm.loop !110

_ZNK2cv22SparseMatConstIterator4nodeEv.exit.us:   ; preds = %_ZNK2cv22SparseMatConstIterator4nodeEv.exit.lr.ph.split.us, %_ZNK2cv22SparseMatConstIterator4nodeEv.exit.us
  %.01621.us = phi i64 [ %59, %_ZNK2cv22SparseMatConstIterator4nodeEv.exit.us ], [ 0, %_ZNK2cv22SparseMatConstIterator4nodeEv.exit.lr.ph.split.us ]
  %48 = load ptr, ptr %29, align 8, !tbaa !45, !nonnull !82, !noundef !82
  %49 = load ptr, ptr %2, align 8, !tbaa !48, !nonnull !82, !noundef !82
  %50 = getelementptr inbounds nuw i8, ptr %49, i64 8
  %51 = load ptr, ptr %50, align 8, !tbaa !36, !nonnull !82, !noundef !82
  %52 = getelementptr inbounds nuw i8, ptr %51, i64 8
  %53 = load i32, ptr %52, align 8, !tbaa !21
  %54 = sext i32 %53 to i64
  %55 = sub nsw i64 0, %54
  %56 = getelementptr inbounds i8, ptr %48, i64 %55
  %57 = getelementptr inbounds nuw i8, ptr %56, i64 16
  %58 = call ptr @cvPtrND(ptr noundef %13, ptr noundef nonnull %57, ptr noundef null, i32 noundef -2, ptr noundef null)
  %59 = add nuw i64 %.01621.us, 1
  %60 = call noundef nonnull align 8 dereferenceable(24) ptr @_ZN2cv22SparseMatConstIteratorppEv(ptr noundef nonnull align 8 dereferenceable(24) %2)
  %exitcond29.not = icmp eq i64 %59, %18
  br i1 %exitcond29.not, label %._crit_edge, label %_ZNK2cv22SparseMatConstIterator4nodeEv.exit.us, !llvm.loop !110

_ZNK2cv22SparseMatConstIterator4nodeEv.exit:      ; preds = %_ZNK2cv22SparseMatConstIterator4nodeEv.exit.lr.ph, %_ZN2cvL8copyElemEPKhPhm.exit
  %.01621 = phi i64 [ %83, %_ZN2cvL8copyElemEPKhPhm.exit ], [ 0, %_ZNK2cv22SparseMatConstIterator4nodeEv.exit.lr.ph ]
  %61 = load ptr, ptr %29, align 8, !tbaa !45, !nonnull !82, !noundef !82
  %62 = load ptr, ptr %2, align 8, !tbaa !48, !nonnull !82, !noundef !82
  %63 = getelementptr inbounds nuw i8, ptr %62, i64 8
  %64 = load ptr, ptr %63, align 8, !tbaa !36, !nonnull !82, !noundef !82
  %65 = getelementptr inbounds nuw i8, ptr %64, i64 8
  %66 = load i32, ptr %65, align 8, !tbaa !21
  %67 = sext i32 %66 to i64
  %68 = sub nsw i64 0, %67
  %69 = getelementptr inbounds i8, ptr %61, i64 %68
  %70 = getelementptr inbounds nuw i8, ptr %69, i64 16
  %71 = call ptr @cvPtrND(ptr noundef %13, ptr noundef nonnull %70, ptr noundef null, i32 noundef -2, ptr noundef null)
  %72 = load ptr, ptr %29, align 8, !tbaa !45
  br label %.lr.ph.i

.preheader.i.loopexit:                            ; preds = %.lr.ph.i
  %73 = icmp samesign ult i64 %74, %28
  br i1 %73, label %.lr.ph17.i, label %_ZN2cvL8copyElemEPKhPhm.exit

.lr.ph.i:                                         ; preds = %_ZNK2cv22SparseMatConstIterator4nodeEv.exit, %.lr.ph.i
  %74 = phi i64 [ %78, %.lr.ph.i ], [ 4, %_ZNK2cv22SparseMatConstIterator4nodeEv.exit ]
  %.015.i = phi i64 [ %74, %.lr.ph.i ], [ 0, %_ZNK2cv22SparseMatConstIterator4nodeEv.exit ]
  %75 = getelementptr inbounds nuw i8, ptr %72, i64 %.015.i
  %76 = load i32, ptr %75, align 4, !tbaa !23
  %77 = getelementptr inbounds nuw i8, ptr %71, i64 %.015.i
  store i32 %76, ptr %77, align 4, !tbaa !23
  %78 = add nuw nsw i64 %74, 4
  %.not.i20 = icmp samesign ugt i64 %78, %28
  br i1 %.not.i20, label %.preheader.i.loopexit, label %.lr.ph.i, !llvm.loop !69

.lr.ph17.i:                                       ; preds = %.preheader.i.loopexit, %.lr.ph17.i
  %.116.i = phi i64 [ %82, %.lr.ph17.i ], [ %74, %.preheader.i.loopexit ]
  %79 = getelementptr inbounds nuw i8, ptr %72, i64 %.116.i
  %80 = load i8, ptr %79, align 1, !tbaa !32
  %81 = getelementptr inbounds nuw i8, ptr %71, i64 %.116.i
  store i8 %80, ptr %81, align 1, !tbaa !32
  %82 = add nuw i64 %.116.i, 1
  %exitcond.not.i = icmp eq i64 %82, %28
  br i1 %exitcond.not.i, label %_ZN2cvL8copyElemEPKhPhm.exit, label %.lr.ph17.i, !llvm.loop !70

_ZN2cvL8copyElemEPKhPhm.exit:                     ; preds = %.lr.ph17.i, %.preheader.i.loopexit
  %83 = add nuw i64 %.01621, 1
  %84 = call noundef nonnull align 8 dereferenceable(24) ptr @_ZN2cv22SparseMatConstIteratorppEv(ptr noundef nonnull align 8 dereferenceable(24) %2)
  %exitcond.not = icmp eq i64 %83, %18
  br i1 %exitcond.not, label %._crit_edge, label %_ZNK2cv22SparseMatConstIterator4nodeEv.exit, !llvm.loop !110

._crit_edge:                                      ; preds = %_ZN2cvL8copyElemEPKhPhm.exit, %_ZN2cvL8copyElemEPKhPhm.exit.loopexit.us.us, %_ZNK2cv22SparseMatConstIterator4nodeEv.exit.us, %_ZNK2cv9SparseMat7nzcountEv.exit
  call void @llvm.lifetime.end.p0(i64 24, ptr nonnull %2) #26
  br label %85

85:                                               ; preds = %1, %5, %._crit_edge
  %.0 = phi ptr [ %13, %._crit_edge ], [ null, %5 ], [ null, %1 ]
  ret ptr %.0
}